; Function Attrs: mustprogress nofree norecurse nosync nounwind memory(readwrite, inaccessiblemem: none) uwtable
define void @_ZN10open_spiel10algorithms13CFRSolverBase28ApplyRegretMatchingPlusResetEv(ptr nocapture noundef nonnull readonly align 8 dereferenceable(5128) %0) local_unnamed_addr #7 align 2 {
  %2 = getelementptr inbounds i8, ptr %0, i64 48
  %.sroa.09.013 = load ptr, ptr %2, align 8
  %.not14 = icmp eq ptr %.sroa.09.013, null
  br i1 %.not14, label %._crit_edge, label %.preheader

.loopexit:                                        ; preds = %22, %.preheader
  %.sroa.09.0 = load ptr, ptr %.sroa.09.015, align 8
  %.not = icmp eq ptr %.sroa.09.0, null
  br i1 %.not, label %._crit_edge, label %.preheader

.preheader:                                       ; preds = %1, %.loopexit
  %.sroa.09.015 = phi ptr [ %.sroa.09.0, %.loopexit ], [ %.sroa.09.013, %1 ]
  %3 = getelementptr inbounds i8, ptr %.sroa.09.015, i64 40
  %4 = getelementptr inbounds i8, ptr %.sroa.09.015, i64 48
  %5 = load ptr, ptr %4, align 8
  %6 = load ptr, ptr %3, align 8
  %7 = ptrtoint ptr %5 to i64
  %8 = ptrtoint ptr %6 to i64
  %9 = sub i64 %7, %8
  %10 = lshr exact i64 %9, 3
  %11 = trunc i64 %10 to i32
  %12 = icmp sgt i32 %11, 0
  br i1 %12, label %.lr.ph, label %.loopexit

.lr.ph:                                           ; preds = %.preheader
  %13 = getelementptr inbounds i8, ptr %.sroa.09.015, i64 64
  br label %14

14:                                               ; preds = %.lr.ph, %22
  %15 = phi ptr [ %6, %.lr.ph ], [ %23, %22 ]
  %16 = phi ptr [ %5, %.lr.ph ], [ %24, %22 ]
  %indvars.iv = phi i64 [ 0, %.lr.ph ], [ %indvars.iv.next, %22 ]
  %17 = load ptr, ptr %13, align 8
  %18 = getelementptr inbounds double, ptr %17, i64 %indvars.iv
  %19 = load double, ptr %18, align 8
  %20 = fcmp olt double %19, 0.000000e+00
  br i1 %20, label %21, label %22

21:                                               ; preds = %14
  store double 0.000000e+00, ptr %18, align 8
  %.pre = load ptr, ptr %4, align 8
  %.pre17 = load ptr, ptr %3, align 8
  br label %22

22:                                               ; preds = %14, %21
  %23 = phi ptr [ %15, %14 ], [ %.pre17, %21 ]
  %24 = phi ptr [ %16, %14 ], [ %.pre, %21 ]
  %indvars.iv.next = add nuw nsw i64 %indvars.iv, 1
  %25 = ptrtoint ptr %24 to i64
  %26 = ptrtoint ptr %23 to i64
  %27 = sub i64 %25, %26
  %sext = shl i64 %27, 29
  %28 = ashr i64 %sext, 32
  %29 = icmp slt i64 %indvars.iv.next, %28
  br i1 %29, label %14, label %.loopexit, !llvm.loop !47

._crit_edge:                                      ; preds = %.loopexit, %1
  ret void
}